target datalayout = "e-m:e-p270:32:32-p271:32:32-p272:64:64-i64:64-i128:128-f80:128-n8:16:32:64-S128"
target triple = "x86_64-pc-linux-gnu"

; Function Attrs: inlinehint nounwind uwtable
define internal i32 @ZSTD_countLeadingZeros32(i32 noundef %0) #4 {
  %2 = alloca i32, align 4
  store i32 %0, ptr %2, align 4, !tbaa !12
  %3 = load i32, ptr %2, align 4, !tbaa !12
  %4 = call i32 @llvm.ctlz.i32(i32 %3, i1 true)
  ret i32 %4
}

; Function Attrs: nounwind uwtable
define internal i64 @HUF_getNbBits(i64 noundef %0) #0 {
  %2 = alloca i64, align 8
  store i64 %0, ptr %2, align 8, !tbaa !8
  %3 = load i64, ptr %2, align 8, !tbaa !8
  %4 = and i64 %3, 255
  ret i64 %4
}

; Function Attrs: inlinehint nounwind uwtable
define internal i32 @ZSTD_highbit32(i32 noundef %0) #4 {
  %2 = alloca i32, align 4
  store i32 %0, ptr %2, align 4, !tbaa !12
  %3 = load i32, ptr %2, align 4, !tbaa !12
  %4 = call i32 @ZSTD_countLeadingZeros32(i32 noundef %3)
  %5 = sub i32 31, %4
  ret i32 %5
}

; Function Attrs: nounwind uwtable
define dso_local i64 @HUF_estimateCompressedSize(ptr noundef %0, ptr noundef %1, i32 noundef %2) #0 {
  %4 = alloca ptr, align 8
  %5 = alloca ptr, align 8
  %6 = alloca i32, align 4
  %7 = alloca ptr, align 8
  %8 = alloca i64, align 8
  %9 = alloca i32, align 4
  store ptr %0, ptr %4, align 8, !tbaa !10
  store ptr %1, ptr %5, align 8, !tbaa !21
  store i32 %2, ptr %6, align 4, !tbaa !12
  call void @llvm.lifetime.start.p0(i64 8, ptr %7) #8
  %10 = load ptr, ptr %4, align 8, !tbaa !10
  %11 = getelementptr inbounds i64, ptr %10, i64 1
  store ptr %11, ptr %7, align 8, !tbaa !10
  call void @llvm.lifetime.start.p0(i64 8, ptr %8) #8
  store i64 0, ptr %8, align 8, !tbaa !8
  call void @llvm.lifetime.start.p0(i64 4, ptr %9) #8
  store i32 0, ptr %9, align 4, !tbaa !12
  br label %12

12:                                               ; preds = %32, %3
  %13 = load i32, ptr %9, align 4, !tbaa !12
  %14 = load i32, ptr %6, align 4, !tbaa !12
  %15 = icmp sle i32 %13, %14
  br i1 %15, label %16, label %35

16:                                               ; preds = %12
  %17 = load ptr, ptr %7, align 8, !tbaa !10
  %18 = load i32, ptr %9, align 4, !tbaa !12
  %19 = sext i32 %18 to i64
  %20 = getelementptr inbounds i64, ptr %17, i64 %19
  %21 = load i64, ptr %20, align 8, !tbaa !8
  %22 = call i64 @HUF_getNbBits(i64 noundef %21)
  %23 = load ptr, ptr %5, align 8, !tbaa !21
  %24 = load i32, ptr %9, align 4, !tbaa !12
  %25 = sext i32 %24 to i64
  %26 = getelementptr inbounds i32, ptr %23, i64 %25
  %27 = load i32, ptr %26, align 4, !tbaa !12
  %28 = zext i32 %27 to i64
  %29 = mul i64 %22, %28
  %30 = load i64, ptr %8, align 8, !tbaa !8
  %31 = add i64 %30, %29
  store i64 %31, ptr %8, align 8, !tbaa !8
  br label %32

32:                                               ; preds = %16
  %33 = load i32, ptr %9, align 4, !tbaa !12
  %34 = add nsw i32 %33, 1
  store i32 %34, ptr %9, align 4, !tbaa !12
  br label %12, !llvm.loop !61

35:                                               ; preds = %12
  %36 = load i64, ptr %8, align 8, !tbaa !8
  %37 = lshr i64 %36, 3
  call void @llvm.lifetime.end.p0(i64 4, ptr %9) #8
  call void @llvm.lifetime.end.p0(i64 8, ptr %8) #8
  call void @llvm.lifetime.end.p0(i64 8, ptr %7) #8
  ret i64 %37
}

; Function Attrs: nounwind uwtable
define internal i32 @ERR_isError(i64 noundef %0) #0 {
  %2 = alloca i64, align 8
  store i64 %0, ptr %2, align 8, !tbaa !8
  %3 = load i64, ptr %2, align 8, !tbaa !8
  %4 = icmp ugt i64 %3, -120
  %5 = zext i1 %4 to i32
  ret i32 %5
}

; Function Attrs: nounwind uwtable
define dso_local i32 @HUF_minTableLog(i32 noundef %0) #0 {
  %2 = alloca i32, align 4
  %3 = alloca i32, align 4
  store i32 %0, ptr %2, align 4, !tbaa !12
  call void @llvm.lifetime.start.p0(i64 4, ptr %3) #8
  %4 = load i32, ptr %2, align 4, !tbaa !12
  %5 = call i32 @ZSTD_highbit32(i32 noundef %4)
  %6 = add i32 %5, 1
  store i32 %6, ptr %3, align 4, !tbaa !12
  %7 = load i32, ptr %3, align 4, !tbaa !12
  call void @llvm.lifetime.end.p0(i64 4, ptr %3) #8
  ret i32 %7
}

; Function Attrs: nounwind uwtable
define dso_local i32 @HUF_cardinality(ptr noundef %0, i32 noundef %1) #0 {
  %3 = alloca ptr, align 8
  %4 = alloca i32, align 4
  %5 = alloca i32, align 4
  %6 = alloca i32, align 4
  store ptr %0, ptr %3, align 8, !tbaa !21
  store i32 %1, ptr %4, align 4, !tbaa !12
  call void @llvm.lifetime.start.p0(i64 4, ptr %5) #8
  store i32 0, ptr %5, align 4, !tbaa !12
  call void @llvm.lifetime.start.p0(i64 4, ptr %6) #8
  store i32 0, ptr %6, align 4, !tbaa !12
  br label %7

7:                                                ; preds = %23, %2
  %8 = load i32, ptr %6, align 4, !tbaa !12
  %9 = load i32, ptr %4, align 4, !tbaa !12
  %10 = add i32 %9, 1
  %11 = icmp ult i32 %8, %10
  br i1 %11, label %12, label %26

12:                                               ; preds = %7
  %13 = load ptr, ptr %3, align 8, !tbaa !21
  %14 = load i32, ptr %6, align 4, !tbaa !12
  %15 = zext i32 %14 to i64
  %16 = getelementptr inbounds nuw i32, ptr %13, i64 %15
  %17 = load i32, ptr %16, align 4, !tbaa !12
  %18 = icmp ne i32 %17, 0
  br i1 %18, label %19, label %22

19:                                               ; preds = %12
  %20 = load i32, ptr %5, align 4, !tbaa !12
  %21 = add i32 %20, 1
  store i32 %21, ptr %5, align 4, !tbaa !12
  br label %22

22:                                               ; preds = %19, %12
  br label %23

23:                                               ; preds = %22
  %24 = load i32, ptr %6, align 4, !tbaa !12
  %25 = add i32 %24, 1
  store i32 %25, ptr %6, align 4, !tbaa !12
  br label %7, !llvm.loop !63

26:                                               ; preds = %7
  %27 = load i32, ptr %5, align 4, !tbaa !12
  call void @llvm.lifetime.end.p0(i64 4, ptr %6) #8
  call void @llvm.lifetime.end.p0(i64 4, ptr %5) #8
  ret i32 %27
}

; Function Attrs: nounwind uwtable
define dso_local i32 @HUF_optimalTableLog(i32 noundef %0, i64 noundef %1, i32 noundef %2, ptr noundef %3, i64 noundef %4, ptr noundef %5, ptr noundef %6, i32 noundef %7) #0 {
  %9 = alloca i32, align 4
  %10 = alloca i32, align 4
  %11 = alloca i64, align 8
  %12 = alloca i32, align 4
  %13 = alloca ptr, align 8
  %14 = alloca i64, align 8
  %15 = alloca ptr, align 8
  %16 = alloca ptr, align 8
  %17 = alloca i32, align 4
  %18 = alloca ptr, align 8
  %19 = alloca i64, align 8
  %20 = alloca i64, align 8
  %21 = alloca i64, align 8
  %22 = alloca i64, align 8
  %23 = alloca i32, align 4
  %24 = alloca i32, align 4
  %25 = alloca i64, align 8
  %26 = alloca i32, align 4
  %27 = alloca i32, align 4
  store i32 %0, ptr %10, align 4, !tbaa !12
  store i64 %1, ptr %11, align 8, !tbaa !8
  store i32 %2, ptr %12, align 4, !tbaa !12
  store ptr %3, ptr %13, align 8, !tbaa !4
  store i64 %4, ptr %14, align 8, !tbaa !8
  store ptr %5, ptr %15, align 8, !tbaa !10
  store ptr %6, ptr %16, align 8, !tbaa !21
  store i32 %7, ptr %17, align 4, !tbaa !12
  %28 = load i32, ptr %17, align 4, !tbaa !12
  %29 = and i32 %28, 2
  %30 = icmp ne i32 %29, 0
  br i1 %30, label %36, label %31

31:                                               ; preds = %8
  %32 = load i32, ptr %10, align 4, !tbaa !12
  %33 = load i64, ptr %11, align 8, !tbaa !8
  %34 = load i32, ptr %12, align 4, !tbaa !12
  %35 = call i32 @FSE_optimalTableLog_internal(i32 noundef %32, i64 noundef %33, i32 noundef %34, i32 noundef 1)
  store i32 %35, ptr %9, align 4
  br label %113

36:                                               ; preds = %8
  call void @llvm.lifetime.start.p0(i64 8, ptr %18) #8
  %37 = load ptr, ptr %13, align 8, !tbaa !4
  %38 = getelementptr inbounds nuw i8, ptr %37, i64 748
  store ptr %38, ptr %18, align 8, !tbaa !14
  call void @llvm.lifetime.start.p0(i64 8, ptr %19) #8
  %39 = load i64, ptr %14, align 8, !tbaa !8
  %40 = sub i64 %39, 748
  store i64 %40, ptr %19, align 8, !tbaa !8
  call void @llvm.lifetime.start.p0(i64 8, ptr %20) #8
  call void @llvm.lifetime.start.p0(i64 8, ptr %21) #8
  call void @llvm.lifetime.start.p0(i64 8, ptr %22) #8
  call void @llvm.lifetime.start.p0(i64 4, ptr %23) #8
  %41 = load ptr, ptr %16, align 8, !tbaa !21
  %42 = load i32, ptr %12, align 4, !tbaa !12
  %43 = call i32 @HUF_cardinality(ptr noundef %41, i32 noundef %42)
  store i32 %43, ptr %23, align 4, !tbaa !12
  call void @llvm.lifetime.start.p0(i64 4, ptr %24) #8
  %44 = load i32, ptr %23, align 4, !tbaa !12
  %45 = call i32 @HUF_minTableLog(i32 noundef %44)
  store i32 %45, ptr %24, align 4, !tbaa !12
  call void @llvm.lifetime.start.p0(i64 8, ptr %25) #8
  store i64 -2, ptr %25, align 8, !tbaa !8
  call void @llvm.lifetime.start.p0(i64 4, ptr %26) #8
  %46 = load i32, ptr %10, align 4, !tbaa !12
  store i32 %46, ptr %26, align 4, !tbaa !12
  call void @llvm.lifetime.start.p0(i64 4, ptr %27) #8
  %47 = load i32, ptr %24, align 4, !tbaa !12
  store i32 %47, ptr %27, align 4, !tbaa !12
  br label %48

48:                                               ; preds = %108, %36
  %49 = load i32, ptr %27, align 4, !tbaa !12
  %50 = load i32, ptr %10, align 4, !tbaa !12
  %51 = icmp ule i32 %49, %50
  br i1 %51, label %52, label %111

52:                                               ; preds = %48
  %53 = load ptr, ptr %15, align 8, !tbaa !10
  %54 = load ptr, ptr %16, align 8, !tbaa !21
  %55 = load i32, ptr %12, align 4, !tbaa !12
  %56 = load i32, ptr %27, align 4, !tbaa !12
  %57 = load ptr, ptr %13, align 8, !tbaa !4
  %58 = load i64, ptr %14, align 8, !tbaa !8
  %59 = call i64 @HUF_buildCTable_wksp(ptr noundef %53, ptr noundef %54, i32 noundef %55, i32 noundef %56, ptr noundef %57, i64 noundef %58)
  store i64 %59, ptr %20, align 8, !tbaa !8
  %60 = load i64, ptr %20, align 8, !tbaa !8
  %61 = call i32 @ERR_isError(i64 noundef %60)
  %62 = icmp ne i32 %61, 0
  br i1 %62, label %63, label %64

63:                                               ; preds = %52
  br label %108

64:                                               ; preds = %52
  %65 = load i64, ptr %20, align 8, !tbaa !8
  %66 = load i32, ptr %27, align 4, !tbaa !12
  %67 = zext i32 %66 to i64
  %68 = icmp ult i64 %65, %67
  br i1 %68, label %69, label %74

69:                                               ; preds = %64
  %70 = load i32, ptr %27, align 4, !tbaa !12
  %71 = load i32, ptr %24, align 4, !tbaa !12
  %72 = icmp ugt i32 %70, %71
  br i1 %72, label %73, label %74

73:                                               ; preds = %69
  br label %111

74:                                               ; preds = %69, %64
  %75 = load ptr, ptr %18, align 8, !tbaa !14
  %76 = load i64, ptr %19, align 8, !tbaa !8
  %77 = load ptr, ptr %15, align 8, !tbaa !10
  %78 = load i32, ptr %12, align 4, !tbaa !12
  %79 = load i64, ptr %20, align 8, !tbaa !8
  %80 = trunc i64 %79 to i32
  %81 = load ptr, ptr %13, align 8, !tbaa !4
  %82 = load i64, ptr %14, align 8, !tbaa !8
  %83 = call i64 @HUF_writeCTable_wksp(ptr noundef %75, i64 noundef %76, ptr noundef %77, i32 noundef %78, i32 noundef %80, ptr noundef %81, i64 noundef %82)
  store i64 %83, ptr %21, align 8, !tbaa !8
  %84 = load i64, ptr %21, align 8, !tbaa !8
  %85 = call i32 @ERR_isError(i64 noundef %84)
  %86 = icmp ne i32 %85, 0
  br i1 %86, label %87, label %88

87:                                               ; preds = %74
  br label %108

88:                                               ; preds = %74
  %89 = load ptr, ptr %15, align 8, !tbaa !10
  %90 = load ptr, ptr %16, align 8, !tbaa !21
  %91 = load i32, ptr %12, align 4, !tbaa !12
  %92 = call i64 @HUF_estimateCompressedSize(ptr noundef %89, ptr noundef %90, i32 noundef %91)
  %93 = load i64, ptr %21, align 8, !tbaa !8
  %94 = add i64 %92, %93
  store i64 %94, ptr %22, align 8, !tbaa !8
  %95 = load i64, ptr %22, align 8, !tbaa !8
  %96 = load i64, ptr %25, align 8, !tbaa !8
  %97 = add i64 %96, 1
  %98 = icmp ugt i64 %95, %97
  br i1 %98, label %99, label %100

99:                                               ; preds = %88
  br label %111

100:                                              ; preds = %88
  %101 = load i64, ptr %22, align 8, !tbaa !8
  %102 = load i64, ptr %25, align 8, !tbaa !8
  %103 = icmp ult i64 %101, %102
  br i1 %103, label %104, label %107

104:                                              ; preds = %100
  %105 = load i64, ptr %22, align 8, !tbaa !8
  store i64 %105, ptr %25, align 8, !tbaa !8
  %106 = load i32, ptr %27, align 4, !tbaa !12
  store i32 %106, ptr %26, align 4, !tbaa !12
  br label %107

107:                                              ; preds = %104, %100
  br label %108

108:                                              ; preds = %107, %87, %63
  %109 = load i32, ptr %27, align 4, !tbaa !12
  %110 = add i32 %109, 1
  store i32 %110, ptr %27, align 4, !tbaa !12
  br label %48, !llvm.loop !64

111:                                              ; preds = %99, %73, %48
  %112 = load i32, ptr %26, align 4, !tbaa !12
  store i32 %112, ptr %9, align 4
  call void @llvm.lifetime.end.p0(i64 4, ptr %27) #8
  call void @llvm.lifetime.end.p0(i64 4, ptr %26) #8
  call void @llvm.lifetime.end.p0(i64 8, ptr %25) #8
  call void @llvm.lifetime.end.p0(i64 4, ptr %24) #8
  call void @llvm.lifetime.end.p0(i64 4, ptr %23) #8
  call void @llvm.lifetime.end.p0(i64 8, ptr %22) #8
  call void @llvm.lifetime.end.p0(i64 8, ptr %21) #8
  call void @llvm.lifetime.end.p0(i64 8, ptr %20) #8
  call void @llvm.lifetime.end.p0(i64 8, ptr %19) #8
  call void @llvm.lifetime.end.p0(i64 8, ptr %18) #8
  br label %113

113:                                              ; preds = %111, %31
  %114 = load i32, ptr %9, align 4
  ret i32 %114
}