; Function Attrs: nounwind uwtable
define dso_local i32 @HUF_optimalTableLog(i32 noundef %0, i64 noundef %1, i32 noundef %2, ptr noundef %3, i64 noundef %4, ptr noundef captures(none) %5, ptr noundef readonly captures(none) %6, i32 noundef %7) local_unnamed_addr #0 {
  %9 = and i32 %7, 2
  %.not = icmp eq i32 %9, 0
  br i1 %.not, label %10, label %12

10:                                               ; preds = %8
  %11 = tail call i32 @FSE_optimalTableLog_internal(i32 noundef %0, i64 noundef %1, i32 noundef %2, i32 noundef 1) #13
  br label %.loopexit

12:                                               ; preds = %8
  %13 = getelementptr inbounds nuw i8, ptr %3, i64 748
  %14 = add i64 %4, -748
  %15 = add i32 %2, 1
  %.not9.i = icmp eq i32 %15, 0
  br i1 %.not9.i, label %.lr.ph.split.us.preheader, label %.lr.ph.preheader.i

.lr.ph.preheader.i:                               ; preds = %12
  %wide.trip.count.i = zext i32 %15 to i64
  br label %.lr.ph.i

.lr.ph.i:                                         ; preds = %.lr.ph.i, %.lr.ph.preheader.i
  %indvars.iv.i = phi i64 [ 0, %.lr.ph.preheader.i ], [ %indvars.iv.next.i, %.lr.ph.i ]
  %.067.i = phi i32 [ 0, %.lr.ph.preheader.i ], [ %spec.select.i, %.lr.ph.i ]
  %16 = getelementptr inbounds nuw i32, ptr %6, i64 %indvars.iv.i
  %17 = load i32, ptr %16, align 4, !tbaa !12
  %.not.i = icmp ne i32 %17, 0
  %18 = zext i1 %.not.i to i32
  %spec.select.i = add i32 %.067.i, %18
  %indvars.iv.next.i = add nuw nsw i64 %indvars.iv.i, 1
  %exitcond.not.i = icmp eq i64 %indvars.iv.next.i, %wide.trip.count.i
  br i1 %exitcond.not.i, label %HUF_cardinality.exit, label %.lr.ph.i, !llvm.loop !58

HUF_cardinality.exit:                             ; preds = %.lr.ph.i
  %19 = tail call range(i32 0, 32) i32 @llvm.ctlz.i32(i32 %spec.select.i, i1 true)
  %20 = sub nuw nsw i32 32, %19
  %.not4959 = icmp ugt i32 %20, %0
  br i1 %.not4959, label %.loopexit, label %.lr.ph

.lr.ph:                                           ; preds = %HUF_cardinality.exit
  %21 = getelementptr inbounds nuw i8, ptr %5, i64 8
  %.not10.i = icmp slt i32 %2, 0
  %wide.trip.count.i54 = zext i32 %15 to i64
  br i1 %.not10.i, label %.lr.ph.split.us.preheader, label %.lr.ph.split

.lr.ph.split.us.preheader:                        ; preds = %12, %.lr.ph
  %22 = phi i32 [ %20, %.lr.ph ], [ poison, %12 ]
  br label %.lr.ph.split.us

.lr.ph.split.us:                                  ; preds = %.lr.ph.split.us.preheader, %37
  %.062.us = phi i32 [ %38, %37 ], [ %22, %.lr.ph.split.us.preheader ]
  %.04461.us = phi i32 [ %.1.us, %37 ], [ %0, %.lr.ph.split.us.preheader ]
  %.04560.us = phi i64 [ %.146.us, %37 ], [ -2, %.lr.ph.split.us.preheader ]
  %23 = tail call i64 @HUF_buildCTable_wksp(ptr noundef %5, ptr noundef %6, i32 noundef %2, i32 noundef %.062.us, ptr noundef %3, i64 noundef %4)
  %24 = icmp ult i64 %23, -119
  br i1 %24, label %25, label %37

25:                                               ; preds = %.lr.ph.split.us
  %26 = zext i32 %.062.us to i64
  %27 = icmp samesign ult i64 %23, %26
  %28 = icmp ugt i32 %.062.us, %22
  %or.cond.us = and i1 %27, %28
  br i1 %or.cond.us, label %.loopexit, label %29

29:                                               ; preds = %25
  %30 = trunc nsw i64 %23 to i32
  %31 = tail call i64 @HUF_writeCTable_wksp(ptr noundef nonnull %13, i64 noundef %14, ptr noundef %5, i32 noundef %2, i32 noundef %30, ptr noundef %3, i64 noundef %4)
  %32 = icmp ult i64 %31, -119
  br i1 %32, label %HUF_estimateCompressedSize.exit.us, label %37

HUF_estimateCompressedSize.exit.us:               ; preds = %29
  %33 = add nuw i64 %.04560.us, 1
  %34 = icmp ugt i64 %31, %33
  br i1 %34, label %.loopexit, label %35

35:                                               ; preds = %HUF_estimateCompressedSize.exit.us
  %36 = icmp ult i64 %31, %.04560.us
  %spec.select.us = tail call i64 @llvm.umin.i64(i64 %31, i64 %.04560.us)
  %spec.select52.us = select i1 %36, i32 %.062.us, i32 %.04461.us
  br label %37

37:                                               ; preds = %35, %29, %.lr.ph.split.us
  %.146.us = phi i64 [ %.04560.us, %.lr.ph.split.us ], [ %.04560.us, %29 ], [ %spec.select.us, %35 ]
  %.1.us = phi i32 [ %.04461.us, %.lr.ph.split.us ], [ %.04461.us, %29 ], [ %spec.select52.us, %35 ]
  %38 = add i32 %.062.us, 1
  %.not49.us = icmp ugt i32 %38, %0
  br i1 %.not49.us, label %.loopexit, label %.lr.ph.split.us, !llvm.loop !59

.lr.ph.split:                                     ; preds = %.lr.ph, %63
  %.062 = phi i32 [ %64, %63 ], [ %20, %.lr.ph ]
  %.04461 = phi i32 [ %.1, %63 ], [ %0, %.lr.ph ]
  %.04560 = phi i64 [ %.146, %63 ], [ -2, %.lr.ph ]
  %39 = tail call i64 @HUF_buildCTable_wksp(ptr noundef %5, ptr noundef %6, i32 noundef %2, i32 noundef %.062, ptr noundef %3, i64 noundef %4)
  %40 = icmp ult i64 %39, -119
  br i1 %40, label %41, label %63

41:                                               ; preds = %.lr.ph.split
  %42 = zext i32 %.062 to i64
  %43 = icmp samesign ult i64 %39, %42
  %44 = icmp ugt i32 %.062, %20
  %or.cond = and i1 %43, %44
  br i1 %or.cond, label %.loopexit, label %45

45:                                               ; preds = %41
  %46 = trunc nsw i64 %39 to i32
  %47 = tail call i64 @HUF_writeCTable_wksp(ptr noundef nonnull %13, i64 noundef %14, ptr noundef %5, i32 noundef %2, i32 noundef %46, ptr noundef %3, i64 noundef %4)
  %48 = icmp ult i64 %47, -119
  br i1 %48, label %.lr.ph.i55, label %63

.lr.ph.i55:                                       ; preds = %45, %.lr.ph.i55
  %indvars.iv.i56 = phi i64 [ %indvars.iv.next.i57, %.lr.ph.i55 ], [ 0, %45 ]
  %.0911.i = phi i64 [ %56, %.lr.ph.i55 ], [ 0, %45 ]
  %49 = getelementptr inbounds nuw i64, ptr %21, i64 %indvars.iv.i56
  %50 = load i64, ptr %49, align 8, !tbaa !9
  %51 = and i64 %50, 255
  %52 = getelementptr inbounds nuw i32, ptr %6, i64 %indvars.iv.i56
  %53 = load i32, ptr %52, align 4, !tbaa !12
  %54 = zext i32 %53 to i64
  %55 = mul nuw nsw i64 %51, %54
  %56 = add i64 %55, %.0911.i
  %indvars.iv.next.i57 = add nuw nsw i64 %indvars.iv.i56, 1
  %exitcond.not.i58 = icmp eq i64 %indvars.iv.next.i57, %wide.trip.count.i54
  br i1 %exitcond.not.i58, label %._crit_edge.loopexit.i, label %.lr.ph.i55, !llvm.loop !51

._crit_edge.loopexit.i:                           ; preds = %.lr.ph.i55
  %57 = lshr i64 %56, 3
  %58 = add i64 %57, %47
  %59 = add nuw i64 %.04560, 1
  %60 = icmp ugt i64 %58, %59
  br i1 %60, label %.loopexit, label %61

61:                                               ; preds = %._crit_edge.loopexit.i
  %62 = icmp ult i64 %58, %.04560
  %spec.select = tail call i64 @llvm.umin.i64(i64 %58, i64 %.04560)
  %spec.select52 = select i1 %62, i32 %.062, i32 %.04461
  br label %63

63:                                               ; preds = %61, %45, %.lr.ph.split
  %.146 = phi i64 [ %.04560, %.lr.ph.split ], [ %.04560, %45 ], [ %spec.select, %61 ]
  %.1 = phi i32 [ %.04461, %.lr.ph.split ], [ %.04461, %45 ], [ %spec.select52, %61 ]
  %64 = add i32 %.062, 1
  %.not49 = icmp ugt i32 %64, %0
  br i1 %.not49, label %.loopexit, label %.lr.ph.split, !llvm.loop !59

.loopexit:                                        ; preds = %41, %._crit_edge.loopexit.i, %63, %25, %HUF_estimateCompressedSize.exit.us, %37, %HUF_cardinality.exit, %10
  %.047 = phi i32 [ %11, %10 ], [ %0, %HUF_cardinality.exit ], [ %.04461.us, %25 ], [ %.04461.us, %HUF_estimateCompressedSize.exit.us ], [ %.1.us, %37 ], [ %.04461, %41 ], [ %.04461, %._crit_edge.loopexit.i ], [ %.1, %63 ]
  ret i32 %.047
}